target datalayout = "e-m:e-p270:32:32-p271:32:32-p272:64:64-i64:64-i128:128-f80:128-n8:16:32:64-S128"
target triple = "x86_64-pc-linux-gnu"

%struct.H5F_t = type { ptr, ptr, ptr, ptr, i32, ptr, i8, i8, ptr, i32 }
%struct.H5F_shared_t = type { ptr, ptr, ptr, i8, i32, i32, %struct.H5F_mtab_t, ptr, i8, i8, i64, i32, i32, i64, i64, ptr, ptr, %struct.H5AC_cache_config_t, %struct.H5AC_cache_image_config_t, i8, i8, ptr, i64, i32, i8, i64, i64, double, i64, i64, i64, i32, i32, i32, i8, i32, ptr, ptr, ptr, ptr, i8, i8, i8, i64, i64, ptr, ptr, i32, i64, i8, i32, i8, i64, i8, [13 x i32], [13 x i64], [13 x ptr], i8, i64, i64, [7 x i32], [7 x i32], %struct.H5F_blk_aggr_t, %struct.H5F_blk_aggr_t, i64, i64, %struct.H5F_meta_accum_t, i32, i32, [30 x ptr], %struct.H5F_object_flush_t, i8, ptr }
%struct.H5F_mtab_t = type { i32, i32, ptr }
%struct.H5AC_cache_config_t = type { i32, i8, i8, i8, [1025 x i8], i8, i8, i64, double, i64, i64, i64, i32, double, double, i8, i64, i32, double, double, i32, double, double, i8, i64, i32, i8, double, i64, i32 }
%struct.H5AC_cache_image_config_t = type { i32, i8, i8, i32 }
%struct.H5F_blk_aggr_t = type { i64, i64, i64, i64, i64 }
%struct.H5F_meta_accum_t = type { ptr, i64, i64, i64, i64, i64, i8 }
%struct.H5F_object_flush_t = type { ptr, ptr }

@.str.2 = private unnamed_addr constant [100 x i8] c"generated/home/dtcxzyw/WorkSpace/Projects/compilers/llvm-opt-benchmark/bench/hdf5/hdf5/src/H5Fint.c\00", align 1
@H5E_FILE_g = external global i64, align 8
@H5E_CANTFLUSH_g = external global i64, align 8
@H5E_CACHE_g = external global i64, align 8
@H5E_IO_g = external global i64, align 8
@H5E_WRITEERROR_g = external global i64, align 8
@.str.256 = private unnamed_addr constant [26 x i8] c"low level truncate failed\00", align 1
@__func__.H5F__flush_phase2 = private unnamed_addr constant [18 x i8] c"H5F__flush_phase2\00", align 1
@.str.266 = private unnamed_addr constant [26 x i8] c"prep for MDC flush failed\00", align 1
@.str.267 = private unnamed_addr constant [31 x i8] c"unable to flush metadata cache\00", align 1
@.str.268 = private unnamed_addr constant [29 x i8] c"secure from MDC flush failed\00", align 1
@.str.269 = private unnamed_addr constant [37 x i8] c"unable to flush metadata accumulator\00", align 1
@.str.270 = private unnamed_addr constant [25 x i8] c"page buffer flush failed\00", align 1
@.str.271 = private unnamed_addr constant [23 x i8] c"low level flush failed\00", align 1

; Function Attrs: nounwind uwtable
define internal i32 @H5F__flush_phase2(ptr noundef %0, i1 noundef zeroext %1) #0 {
  %3 = alloca ptr, align 8
  %4 = alloca i8, align 1
  %5 = alloca i32, align 4
  %6 = alloca i8, align 1
  store ptr %0, ptr %3, align 8
  %7 = zext i1 %1 to i8
  store i8 %7, ptr %4, align 1
  store i32 0, ptr %5, align 4
  store i8 0, ptr %6, align 1
  %8 = load ptr, ptr %3, align 8
  %9 = call i32 @H5AC_prep_for_file_flush(ptr noundef %8)
  %10 = icmp slt i32 %9, 0
  br i1 %10, label %11, label %24

11:                                               ; preds = %2
  br label %12

12:                                               ; preds = %11
  br label %13

13:                                               ; preds = %12
  br label %14

14:                                               ; preds = %13
  %15 = load i64, ptr @H5E_CACHE_g, align 8
  %16 = load i64, ptr @H5E_CANTFLUSH_g, align 8
  %17 = call i32 (ptr, ptr, i32, i64, i64, ptr, ...) @H5E_printf_stack(ptr noundef @.str.2, ptr noundef @__func__.H5F__flush_phase2, i32 noundef 2300, i64 noundef %15, i64 noundef %16, ptr noundef @.str.266)
  br label %18

18:                                               ; preds = %14
  store i8 1, ptr %6, align 1
  %19 = load i8, ptr %6, align 1
  %20 = trunc i8 %19 to i1
  %21 = zext i1 %20 to i8
  store i8 %21, ptr %6, align 1
  br label %22

22:                                               ; preds = %18
  store i32 -1, ptr %5, align 4
  br label %23

23:                                               ; preds = %22
  br label %24

24:                                               ; preds = %23, %2
  %25 = load ptr, ptr %3, align 8
  %26 = call i32 @H5AC_flush(ptr noundef %25)
  %27 = icmp slt i32 %26, 0
  br i1 %27, label %28, label %41

28:                                               ; preds = %24
  br label %29

29:                                               ; preds = %28
  br label %30

30:                                               ; preds = %29
  br label %31

31:                                               ; preds = %30
  %32 = load i64, ptr @H5E_CACHE_g, align 8
  %33 = load i64, ptr @H5E_CANTFLUSH_g, align 8
  %34 = call i32 (ptr, ptr, i32, i64, i64, ptr, ...) @H5E_printf_stack(ptr noundef @.str.2, ptr noundef @__func__.H5F__flush_phase2, i32 noundef 2305, i64 noundef %32, i64 noundef %33, ptr noundef @.str.267)
  br label %35

35:                                               ; preds = %31
  store i8 1, ptr %6, align 1
  %36 = load i8, ptr %6, align 1
  %37 = trunc i8 %36 to i1
  %38 = zext i1 %37 to i8
  store i8 %38, ptr %6, align 1
  br label %39

39:                                               ; preds = %35
  store i32 -1, ptr %5, align 4
  br label %40

40:                                               ; preds = %39
  br label %41

41:                                               ; preds = %40, %24
  %42 = load ptr, ptr %3, align 8
  %43 = getelementptr inbounds %struct.H5F_t, ptr %42, i32 0, i32 2
  %44 = load ptr, ptr %43, align 8
  %45 = getelementptr inbounds %struct.H5F_shared_t, ptr %44, i32 0, i32 0
  %46 = load ptr, ptr %45, align 8
  %47 = load i8, ptr %4, align 1
  %48 = trunc i8 %47 to i1
  %49 = call i32 @H5FD_truncate(ptr noundef %46, i1 noundef zeroext %48)
  %50 = icmp slt i32 %49, 0
  br i1 %50, label %51, label %64

51:                                               ; preds = %41
  br label %52

52:                                               ; preds = %51
  br label %53

53:                                               ; preds = %52
  br label %54

54:                                               ; preds = %53
  %55 = load i64, ptr @H5E_FILE_g, align 8
  %56 = load i64, ptr @H5E_WRITEERROR_g, align 8
  %57 = call i32 (ptr, ptr, i32, i64, i64, ptr, ...) @H5E_printf_stack(ptr noundef @.str.2, ptr noundef @__func__.H5F__flush_phase2, i32 noundef 2321, i64 noundef %55, i64 noundef %56, ptr noundef @.str.256)
  br label %58

58:                                               ; preds = %54
  store i8 1, ptr %6, align 1
  %59 = load i8, ptr %6, align 1
  %60 = trunc i8 %59 to i1
  %61 = zext i1 %60 to i8
  store i8 %61, ptr %6, align 1
  br label %62

62:                                               ; preds = %58
  store i32 -1, ptr %5, align 4
  br label %63

63:                                               ; preds = %62
  br label %64

64:                                               ; preds = %63, %41
  %65 = load ptr, ptr %3, align 8
  %66 = call i32 @H5AC_flush(ptr noundef %65)
  %67 = icmp slt i32 %66, 0
  br i1 %67, label %68, label %81

68:                                               ; preds = %64
  br label %69

69:                                               ; preds = %68
  br label %70

70:                                               ; preds = %69
  br label %71

71:                                               ; preds = %70
  %72 = load i64, ptr @H5E_CACHE_g, align 8
  %73 = load i64, ptr @H5E_CANTFLUSH_g, align 8
  %74 = call i32 (ptr, ptr, i32, i64, i64, ptr, ...) @H5E_printf_stack(ptr noundef @.str.2, ptr noundef @__func__.H5F__flush_phase2, i32 noundef 2326, i64 noundef %72, i64 noundef %73, ptr noundef @.str.267)
  br label %75

75:                                               ; preds = %71
  store i8 1, ptr %6, align 1
  %76 = load i8, ptr %6, align 1
  %77 = trunc i8 %76 to i1
  %78 = zext i1 %77 to i8
  store i8 %78, ptr %6, align 1
  br label %79

79:                                               ; preds = %75
  store i32 -1, ptr %5, align 4
  br label %80

80:                                               ; preds = %79
  br label %81

81:                                               ; preds = %80, %64
  %82 = load ptr, ptr %3, align 8
  %83 = call i32 @H5AC_secure_from_file_flush(ptr noundef %82)
  %84 = icmp slt i32 %83, 0
  br i1 %84, label %85, label %98

85:                                               ; preds = %81
  br label %86

86:                                               ; preds = %85
  br label %87

87:                                               ; preds = %86
  br label %88

88:                                               ; preds = %87
  %89 = load i64, ptr @H5E_CACHE_g, align 8
  %90 = load i64, ptr @H5E_CANTFLUSH_g, align 8
  %91 = call i32 (ptr, ptr, i32, i64, i64, ptr, ...) @H5E_printf_stack(ptr noundef @.str.2, ptr noundef @__func__.H5F__flush_phase2, i32 noundef 2337, i64 noundef %89, i64 noundef %90, ptr noundef @.str.268)
  br label %92

92:                                               ; preds = %88
  store i8 1, ptr %6, align 1
  %93 = load i8, ptr %6, align 1
  %94 = trunc i8 %93 to i1
  %95 = zext i1 %94 to i8
  store i8 %95, ptr %6, align 1
  br label %96

96:                                               ; preds = %92
  store i32 -1, ptr %5, align 4
  br label %97

97:                                               ; preds = %96
  br label %98

98:                                               ; preds = %97, %81
  %99 = load ptr, ptr %3, align 8
  %100 = getelementptr inbounds %struct.H5F_t, ptr %99, i32 0, i32 2
  %101 = load ptr, ptr %100, align 8
  %102 = call i32 @H5F__accum_flush(ptr noundef %101)
  %103 = icmp slt i32 %102, 0
  br i1 %103, label %104, label %117

104:                                              ; preds = %98
  br label %105

105:                                              ; preds = %104
  br label %106

106:                                              ; preds = %105
  br label %107

107:                                              ; preds = %106
  %108 = load i64, ptr @H5E_IO_g, align 8
  %109 = load i64, ptr @H5E_CANTFLUSH_g, align 8
  %110 = call i32 (ptr, ptr, i32, i64, i64, ptr, ...) @H5E_printf_stack(ptr noundef @.str.2, ptr noundef @__func__.H5F__flush_phase2, i32 noundef 2342, i64 noundef %108, i64 noundef %109, ptr noundef @.str.269)
  br label %111

111:                                              ; preds = %107
  store i8 1, ptr %6, align 1
  %112 = load i8, ptr %6, align 1
  %113 = trunc i8 %112 to i1
  %114 = zext i1 %113 to i8
  store i8 %114, ptr %6, align 1
  br label %115

115:                                              ; preds = %111
  store i32 -1, ptr %5, align 4
  br label %116

116:                                              ; preds = %115
  br label %117

117:                                              ; preds = %116, %98
  %118 = load ptr, ptr %3, align 8
  %119 = getelementptr inbounds %struct.H5F_t, ptr %118, i32 0, i32 2
  %120 = load ptr, ptr %119, align 8
  %121 = call i32 @H5PB_flush(ptr noundef %120)
  %122 = icmp slt i32 %121, 0
  br i1 %122, label %123, label %136

123:                                              ; preds = %117
  br label %124

124:                                              ; preds = %123
  br label %125

125:                                              ; preds = %124
  br label %126

126:                                              ; preds = %125
  %127 = load i64, ptr @H5E_IO_g, align 8
  %128 = load i64, ptr @H5E_CANTFLUSH_g, align 8
  %129 = call i32 (ptr, ptr, i32, i64, i64, ptr, ...) @H5E_printf_stack(ptr noundef @.str.2, ptr noundef @__func__.H5F__flush_phase2, i32 noundef 2347, i64 noundef %127, i64 noundef %128, ptr noundef @.str.270)
  br label %130

130:                                              ; preds = %126
  store i8 1, ptr %6, align 1
  %131 = load i8, ptr %6, align 1
  %132 = trunc i8 %131 to i1
  %133 = zext i1 %132 to i8
  store i8 %133, ptr %6, align 1
  br label %134

134:                                              ; preds = %130
  store i32 -1, ptr %5, align 4
  br label %135

135:                                              ; preds = %134
  br label %136

136:                                              ; preds = %135, %117
  %137 = load ptr, ptr %3, align 8
  %138 = getelementptr inbounds %struct.H5F_t, ptr %137, i32 0, i32 2
  %139 = load ptr, ptr %138, align 8
  %140 = getelementptr inbounds %struct.H5F_shared_t, ptr %139, i32 0, i32 0
  %141 = load ptr, ptr %140, align 8
  %142 = load i8, ptr %4, align 1
  %143 = trunc i8 %142 to i1
  %144 = call i32 @H5FD_flush(ptr noundef %141, i1 noundef zeroext %143)
  %145 = icmp slt i32 %144, 0
  br i1 %145, label %146, label %159

146:                                              ; preds = %136
  br label %147

147:                                              ; preds = %146
  br label %148

148:                                              ; preds = %147
  br label %149

149:                                              ; preds = %148
  %150 = load i64, ptr @H5E_IO_g, align 8
  %151 = load i64, ptr @H5E_CANTFLUSH_g, align 8
  %152 = call i32 (ptr, ptr, i32, i64, i64, ptr, ...) @H5E_printf_stack(ptr noundef @.str.2, ptr noundef @__func__.H5F__flush_phase2, i32 noundef 2352, i64 noundef %150, i64 noundef %151, ptr noundef @.str.271)
  br label %153

153:                                              ; preds = %149
  store i8 1, ptr %6, align 1
  %154 = load i8, ptr %6, align 1
  %155 = trunc i8 %154 to i1
  %156 = zext i1 %155 to i8
  store i8 %156, ptr %6, align 1
  br label %157

157:                                              ; preds = %153
  store i32 -1, ptr %5, align 4
  br label %158

158:                                              ; preds = %157
  br label %159

159:                                              ; preds = %158, %136
  %160 = load i32, ptr %5, align 4
  ret i32 %160
}