; Function Attrs: nounwind uwtable
define internal fastcc range(i32 -1, 1) i32 @H5F__flush_phase2(ptr noundef %0, i1 noundef zeroext %1) unnamed_addr #0 {
  %3 = tail call i32 @H5AC_prep_for_file_flush(ptr noundef %0) #22
  %4 = icmp slt i32 %3, 0
  br i1 %4, label %5, label %9

5:                                                ; preds = %2
  %6 = load i64, ptr @H5E_CACHE_g, align 8
  %7 = load i64, ptr @H5E_CANTFLUSH_g, align 8
  %8 = tail call i32 (ptr, ptr, i32, i64, i64, ptr, ...) @H5E_printf_stack(ptr noundef nonnull @.str.2, ptr noundef nonnull @__func__.H5F__flush_phase2, i32 noundef 2300, i64 noundef %6, i64 noundef %7, ptr noundef nonnull @.str.266) #22
  br label %9

9:                                                ; preds = %5, %2
  %.0 = phi i32 [ -1, %5 ], [ 0, %2 ]
  %10 = tail call i32 @H5AC_flush(ptr noundef %0) #22
  %11 = icmp slt i32 %10, 0
  br i1 %11, label %12, label %16

12:                                               ; preds = %9
  %13 = load i64, ptr @H5E_CACHE_g, align 8
  %14 = load i64, ptr @H5E_CANTFLUSH_g, align 8
  %15 = tail call i32 (ptr, ptr, i32, i64, i64, ptr, ...) @H5E_printf_stack(ptr noundef nonnull @.str.2, ptr noundef nonnull @__func__.H5F__flush_phase2, i32 noundef 2305, i64 noundef %13, i64 noundef %14, ptr noundef nonnull @.str.267) #22
  br label %16

16:                                               ; preds = %12, %9
  %.1 = phi i32 [ -1, %12 ], [ %.0, %9 ]
  %17 = getelementptr inbounds i8, ptr %0, i64 16
  %18 = load ptr, ptr %17, align 8
  %19 = load ptr, ptr %18, align 8
  %20 = tail call i32 @H5FD_truncate(ptr noundef %19, i1 noundef zeroext %1) #22
  %21 = icmp slt i32 %20, 0
  br i1 %21, label %22, label %26

22:                                               ; preds = %16
  %23 = load i64, ptr @H5E_FILE_g, align 8
  %24 = load i64, ptr @H5E_WRITEERROR_g, align 8
  %25 = tail call i32 (ptr, ptr, i32, i64, i64, ptr, ...) @H5E_printf_stack(ptr noundef nonnull @.str.2, ptr noundef nonnull @__func__.H5F__flush_phase2, i32 noundef 2321, i64 noundef %23, i64 noundef %24, ptr noundef nonnull @.str.256) #22
  br label %26

26:                                               ; preds = %22, %16
  %.2 = phi i32 [ -1, %22 ], [ %.1, %16 ]
  %27 = tail call i32 @H5AC_flush(ptr noundef nonnull %0) #22
  %28 = icmp slt i32 %27, 0
  br i1 %28, label %29, label %33

29:                                               ; preds = %26
  %30 = load i64, ptr @H5E_CACHE_g, align 8
  %31 = load i64, ptr @H5E_CANTFLUSH_g, align 8
  %32 = tail call i32 (ptr, ptr, i32, i64, i64, ptr, ...) @H5E_printf_stack(ptr noundef nonnull @.str.2, ptr noundef nonnull @__func__.H5F__flush_phase2, i32 noundef 2326, i64 noundef %30, i64 noundef %31, ptr noundef nonnull @.str.267) #22
  br label %33

33:                                               ; preds = %29, %26
  %.3 = phi i32 [ -1, %29 ], [ %.2, %26 ]
  %34 = tail call i32 @H5AC_secure_from_file_flush(ptr noundef nonnull %0) #22
  %35 = icmp slt i32 %34, 0
  br i1 %35, label %36, label %40

36:                                               ; preds = %33
  %37 = load i64, ptr @H5E_CACHE_g, align 8
  %38 = load i64, ptr @H5E_CANTFLUSH_g, align 8
  %39 = tail call i32 (ptr, ptr, i32, i64, i64, ptr, ...) @H5E_printf_stack(ptr noundef nonnull @.str.2, ptr noundef nonnull @__func__.H5F__flush_phase2, i32 noundef 2337, i64 noundef %37, i64 noundef %38, ptr noundef nonnull @.str.268) #22
  br label %40

40:                                               ; preds = %36, %33
  %.4 = phi i32 [ -1, %36 ], [ %.3, %33 ]
  %41 = load ptr, ptr %17, align 8
  %42 = tail call i32 @H5F__accum_flush(ptr noundef %41) #22
  %43 = icmp slt i32 %42, 0
  br i1 %43, label %44, label %48

44:                                               ; preds = %40
  %45 = load i64, ptr @H5E_IO_g, align 8
  %46 = load i64, ptr @H5E_CANTFLUSH_g, align 8
  %47 = tail call i32 (ptr, ptr, i32, i64, i64, ptr, ...) @H5E_printf_stack(ptr noundef nonnull @.str.2, ptr noundef nonnull @__func__.H5F__flush_phase2, i32 noundef 2342, i64 noundef %45, i64 noundef %46, ptr noundef nonnull @.str.269) #22
  br label %48

48:                                               ; preds = %44, %40
  %.5 = phi i32 [ -1, %44 ], [ %.4, %40 ]
  %49 = load ptr, ptr %17, align 8
  %50 = tail call i32 @H5PB_flush(ptr noundef %49) #22
  %51 = icmp slt i32 %50, 0
  br i1 %51, label %52, label %56

52:                                               ; preds = %48
  %53 = load i64, ptr @H5E_IO_g, align 8
  %54 = load i64, ptr @H5E_CANTFLUSH_g, align 8
  %55 = tail call i32 (ptr, ptr, i32, i64, i64, ptr, ...) @H5E_printf_stack(ptr noundef nonnull @.str.2, ptr noundef nonnull @__func__.H5F__flush_phase2, i32 noundef 2347, i64 noundef %53, i64 noundef %54, ptr noundef nonnull @.str.270) #22
  br label %56

56:                                               ; preds = %52, %48
  %.6 = phi i32 [ -1, %52 ], [ %.5, %48 ]
  %57 = load ptr, ptr %17, align 8
  %58 = load ptr, ptr %57, align 8
  %59 = tail call i32 @H5FD_flush(ptr noundef %58, i1 noundef zeroext %1) #22
  %60 = icmp slt i32 %59, 0
  br i1 %60, label %61, label %65

61:                                               ; preds = %56
  %62 = load i64, ptr @H5E_IO_g, align 8
  %63 = load i64, ptr @H5E_CANTFLUSH_g, align 8
  %64 = tail call i32 (ptr, ptr, i32, i64, i64, ptr, ...) @H5E_printf_stack(ptr noundef nonnull @.str.2, ptr noundef nonnull @__func__.H5F__flush_phase2, i32 noundef 2352, i64 noundef %62, i64 noundef %63, ptr noundef nonnull @.str.271) #22
  br label %65

65:                                               ; preds = %61, %56
  %.7 = phi i32 [ -1, %61 ], [ %.6, %56 ]
  ret i32 %.7
}